; Function Attrs: mustprogress nounwind uwtable
define hidden void @_ZN7Compile19dump_print_inliningEv(ptr nocapture noundef nonnull readonly align 8 dereferenceable(2316) %0) local_unnamed_addr #0 align 2 {
  %2 = getelementptr inbounds i8, ptr %0, i64 2120
  %3 = load ptr, ptr %2, align 8
  %.not = icmp eq ptr %3, null
  br i1 %.not, label %7, label %4

4:                                                ; preds = %1
  %5 = load ptr, ptr @tty, align 8
  %6 = tail call i64 @strlen(ptr noundef nonnull dereferenceable(1) %3) #19
  tail call void @_ZN12outputStream9print_rawEPKcm(ptr noundef nonnull align 8 dereferenceable(56) %5, ptr noundef nonnull %3, i64 noundef %6) #17
  br label %7

7:                                                ; preds = %4, %1
  ret void
}